; Function Attrs: mustprogress uwtable
define dso_local void @_ZN23btDefaultSoftBodySolver16solveConstraintsEf(ptr noundef nonnull readonly align 8 captures(none) dereferenceable(56) %0, float %1) unnamed_addr #4 align 2 {
  %3 = getelementptr inbounds nuw i8, ptr %0, i64 28
  %4 = load i32, ptr %3, align 4, !tbaa !21
  %5 = icmp sgt i32 %4, 0
  br i1 %5, label %.lr.ph, label %._crit_edge

.lr.ph:                                           ; preds = %2
  %6 = getelementptr inbounds nuw i8, ptr %0, i64 40
  br label %7

._crit_edge:                                      ; preds = %_ZNK17btCollisionObject8isActiveEv.exit, %2
  ret void

7:                                                ; preds = %.lr.ph, %_ZNK17btCollisionObject8isActiveEv.exit
  %8 = phi i32 [ %4, %.lr.ph ], [ %15, %_ZNK17btCollisionObject8isActiveEv.exit ]
  %indvars.iv = phi i64 [ 0, %.lr.ph ], [ %indvars.iv.next, %_ZNK17btCollisionObject8isActiveEv.exit ]
  %9 = load ptr, ptr %6, align 8, !tbaa !20
  %10 = getelementptr inbounds nuw ptr, ptr %9, i64 %indvars.iv
  %11 = load ptr, ptr %10, align 8, !tbaa !27
  %12 = getelementptr inbounds nuw i8, ptr %11, i64 240
  %13 = load i32, ptr %12, align 8, !tbaa !31
  switch i32 %13, label %14 [
    i32 6, label %_ZNK17btCollisionObject8isActiveEv.exit
    i32 2, label %_ZNK17btCollisionObject8isActiveEv.exit
    i32 5, label %_ZNK17btCollisionObject8isActiveEv.exit
  ]

14:                                               ; preds = %7
  tail call void @_ZN10btSoftBody16solveConstraintsEv(ptr noundef nonnull align 8 dereferenceable(2064) %11)
  %.pre = load i32, ptr %3, align 4, !tbaa !21
  br label %_ZNK17btCollisionObject8isActiveEv.exit

_ZNK17btCollisionObject8isActiveEv.exit:          ; preds = %7, %7, %7, %14
  %15 = phi i32 [ %8, %7 ], [ %8, %7 ], [ %8, %7 ], [ %.pre, %14 ]
  %indvars.iv.next = add nuw nsw i64 %indvars.iv, 1
  %16 = sext i32 %15 to i64
  %17 = icmp slt i64 %indvars.iv.next, %16
  br i1 %17, label %7, label %._crit_edge, !llvm.loop !42
}